; Function Attrs: mustprogress nounwind uwtable
define hidden void @_ZN14G1SurvivorPoolC2EP15G1CollectedHeapm(ptr noundef nonnull align 8 dereferenceable(216) %0, ptr nocapture noundef readonly %1, i64 noundef %2) unnamed_addr #0 align 2 {
  tail call void @_ZN10MemoryPoolC2EPKcNS_8PoolTypeEmmbb(ptr noundef nonnull align 8 dereferenceable(201) %0, ptr noundef nonnull @.str.4, i32 noundef 1, i64 noundef %2, i64 noundef -1, i1 noundef zeroext false, i1 noundef zeroext true) #5
  store ptr getelementptr inbounds inrange(-16, 64) (i8, ptr @_ZTV17G1MemoryPoolSuper, i64 16), ptr %0, align 8
  %4 = getelementptr inbounds i8, ptr %0, i64 208
  %5 = getelementptr inbounds i8, ptr %1, i64 952
  %6 = load ptr, ptr %5, align 8
  store ptr %6, ptr %4, align 8
  store ptr getelementptr inbounds inrange(-16, 64) (i8, ptr @_ZTV14G1SurvivorPool, i64 16), ptr %0, align 8
  ret void
}